; Function Attrs: mustprogress uwtable
define hidden void @_ZN5zxing6common15CharacterSetECI15addCharacterSetEPKiPKPKc(ptr noundef %0, ptr noundef %1) local_unnamed_addr #2 align 2 personality ptr @__gxx_personality_v0 {
  %3 = tail call noalias noundef nonnull dereferenceable(32) ptr @_Znwm(i64 noundef 32) #13
  invoke void @_ZN5zxing6common15CharacterSetECIC2EPKiPKPKc(ptr noundef nonnull align 8 dereferenceable(32) %3, ptr noundef %0, ptr noundef %1)
          to label %4 unwind label %5

4:                                                ; preds = %2
  ret void

5:                                                ; preds = %2
  %6 = landingpad { ptr, i32 }
          cleanup
  tail call void @_ZdlPv(ptr noundef nonnull %3) #14
  resume { ptr, i32 } %6
}